target datalayout = "e-m:e-p270:32:32-p271:32:32-p272:64:64-i64:64-i128:128-f80:128-n8:16:32:64-S128"
target triple = "x86_64-pc-linux-gnu"

%struct.idea_key_st = type { [9 x [6 x i32]] }

; Function Attrs: nounwind uwtable
define internal i32 @inverse(i32 noundef %0) #0 {
  %2 = alloca i32, align 4
  %3 = alloca i64, align 8
  %4 = alloca i64, align 8
  %5 = alloca i64, align 8
  %6 = alloca i64, align 8
  %7 = alloca i64, align 8
  %8 = alloca i64, align 8
  %9 = alloca i64, align 8
  store i32 %0, ptr %2, align 4, !tbaa !13
  call void @llvm.lifetime.start.p0(i64 8, ptr %3) #2
  call void @llvm.lifetime.start.p0(i64 8, ptr %4) #2
  call void @llvm.lifetime.start.p0(i64 8, ptr %5) #2
  call void @llvm.lifetime.start.p0(i64 8, ptr %6) #2
  call void @llvm.lifetime.start.p0(i64 8, ptr %7) #2
  call void @llvm.lifetime.start.p0(i64 8, ptr %8) #2
  call void @llvm.lifetime.start.p0(i64 8, ptr %9) #2
  %10 = load i32, ptr %2, align 4, !tbaa !13
  %11 = icmp eq i32 %10, 0
  br i1 %11, label %12, label %13

12:                                               ; preds = %1
  store i64 0, ptr %8, align 8, !tbaa !18
  br label %49

13:                                               ; preds = %1
  store i64 65537, ptr %3, align 8, !tbaa !18
  %14 = load i32, ptr %2, align 4, !tbaa !13
  %15 = zext i32 %14 to i64
  store i64 %15, ptr %4, align 8, !tbaa !18
  store i64 1, ptr %8, align 8, !tbaa !18
  store i64 0, ptr %7, align 8, !tbaa !18
  br label %16

16:                                               ; preds = %45, %13
  %17 = load i64, ptr %3, align 8, !tbaa !18
  %18 = load i64, ptr %4, align 8, !tbaa !18
  %19 = srem i64 %17, %18
  store i64 %19, ptr %6, align 8, !tbaa !18
  %20 = load i64, ptr %3, align 8, !tbaa !18
  %21 = load i64, ptr %6, align 8, !tbaa !18
  %22 = sub nsw i64 %20, %21
  %23 = load i64, ptr %4, align 8, !tbaa !18
  %24 = sdiv i64 %22, %23
  store i64 %24, ptr %5, align 8, !tbaa !18
  %25 = load i64, ptr %6, align 8, !tbaa !18
  %26 = icmp eq i64 %25, 0
  br i1 %26, label %27, label %34

27:                                               ; preds = %16
  %28 = load i64, ptr %8, align 8, !tbaa !18
  %29 = icmp slt i64 %28, 0
  br i1 %29, label %30, label %33

30:                                               ; preds = %27
  %31 = load i64, ptr %8, align 8, !tbaa !18
  %32 = add nsw i64 65537, %31
  store i64 %32, ptr %8, align 8, !tbaa !18
  br label %33

33:                                               ; preds = %30, %27
  br label %44

34:                                               ; preds = %16
  %35 = load i64, ptr %4, align 8, !tbaa !18
  store i64 %35, ptr %3, align 8, !tbaa !18
  %36 = load i64, ptr %6, align 8, !tbaa !18
  store i64 %36, ptr %4, align 8, !tbaa !18
  %37 = load i64, ptr %8, align 8, !tbaa !18
  store i64 %37, ptr %9, align 8, !tbaa !18
  %38 = load i64, ptr %7, align 8, !tbaa !18
  %39 = load i64, ptr %5, align 8, !tbaa !18
  %40 = load i64, ptr %8, align 8, !tbaa !18
  %41 = mul nsw i64 %39, %40
  %42 = sub nsw i64 %38, %41
  store i64 %42, ptr %8, align 8, !tbaa !18
  %43 = load i64, ptr %9, align 8, !tbaa !18
  store i64 %43, ptr %7, align 8, !tbaa !18
  br label %44

44:                                               ; preds = %34, %33
  br label %45

45:                                               ; preds = %44
  %46 = load i64, ptr %6, align 8, !tbaa !18
  %47 = icmp ne i64 %46, 0
  br i1 %47, label %16, label %48, !llvm.loop !20

48:                                               ; preds = %45
  br label %49

49:                                               ; preds = %48, %12
  %50 = load i64, ptr %8, align 8, !tbaa !18
  %51 = trunc i64 %50 to i32
  call void @llvm.lifetime.end.p0(i64 8, ptr %9) #2
  call void @llvm.lifetime.end.p0(i64 8, ptr %8) #2
  call void @llvm.lifetime.end.p0(i64 8, ptr %7) #2
  call void @llvm.lifetime.end.p0(i64 8, ptr %6) #2
  call void @llvm.lifetime.end.p0(i64 8, ptr %5) #2
  call void @llvm.lifetime.end.p0(i64 8, ptr %4) #2
  call void @llvm.lifetime.end.p0(i64 8, ptr %3) #2
  ret i32 %51
}

; Function Attrs: nounwind uwtable
define void @IDEA_set_decrypt_key(ptr noundef %0, ptr noundef %1) #0 {
  %3 = alloca ptr, align 8
  %4 = alloca ptr, align 8
  %5 = alloca i32, align 4
  %6 = alloca ptr, align 8
  %7 = alloca ptr, align 8
  %8 = alloca i32, align 4
  store ptr %0, ptr %3, align 8, !tbaa !8
  store ptr %1, ptr %4, align 8, !tbaa !8
  call void @llvm.lifetime.start.p0(i64 4, ptr %5) #2
  call void @llvm.lifetime.start.p0(i64 8, ptr %6) #2
  call void @llvm.lifetime.start.p0(i64 8, ptr %7) #2
  call void @llvm.lifetime.start.p0(i64 4, ptr %8) #2
  %9 = load ptr, ptr %4, align 8, !tbaa !8
  %10 = getelementptr inbounds nuw %struct.idea_key_st, ptr %9, i32 0, i32 0
  %11 = getelementptr inbounds [9 x [6 x i32]], ptr %10, i64 0, i64 0
  %12 = getelementptr inbounds [6 x i32], ptr %11, i64 0, i64 0
  store ptr %12, ptr %7, align 8, !tbaa !10
  %13 = load ptr, ptr %3, align 8, !tbaa !8
  %14 = getelementptr inbounds nuw %struct.idea_key_st, ptr %13, i32 0, i32 0
  %15 = getelementptr inbounds [9 x [6 x i32]], ptr %14, i64 0, i64 8
  %16 = getelementptr inbounds [6 x i32], ptr %15, i64 0, i64 0
  store ptr %16, ptr %6, align 8, !tbaa !10
  store i32 0, ptr %5, align 4, !tbaa !13
  br label %17

17:                                               ; preds = %67, %2
  %18 = load i32, ptr %5, align 4, !tbaa !13
  %19 = icmp slt i32 %18, 9
  br i1 %19, label %20, label %70

20:                                               ; preds = %17
  %21 = load ptr, ptr %6, align 8, !tbaa !10
  %22 = getelementptr inbounds i32, ptr %21, i64 0
  %23 = load i32, ptr %22, align 4, !tbaa !13
  %24 = call i32 @inverse(i32 noundef %23)
  %25 = load ptr, ptr %7, align 8, !tbaa !10
  %26 = getelementptr inbounds nuw i32, ptr %25, i32 1
  store ptr %26, ptr %7, align 8, !tbaa !10
  store i32 %24, ptr %25, align 4, !tbaa !13
  %27 = load ptr, ptr %6, align 8, !tbaa !10
  %28 = getelementptr inbounds i32, ptr %27, i64 2
  %29 = load i32, ptr %28, align 4, !tbaa !13
  %30 = zext i32 %29 to i64
  %31 = sub nsw i64 65536, %30
  %32 = trunc i64 %31 to i32
  %33 = and i32 %32, 65535
  %34 = load ptr, ptr %7, align 8, !tbaa !10
  %35 = getelementptr inbounds nuw i32, ptr %34, i32 1
  store ptr %35, ptr %7, align 8, !tbaa !10
  store i32 %33, ptr %34, align 4, !tbaa !13
  %36 = load ptr, ptr %6, align 8, !tbaa !10
  %37 = getelementptr inbounds i32, ptr %36, i64 1
  %38 = load i32, ptr %37, align 4, !tbaa !13
  %39 = zext i32 %38 to i64
  %40 = sub nsw i64 65536, %39
  %41 = trunc i64 %40 to i32
  %42 = and i32 %41, 65535
  %43 = load ptr, ptr %7, align 8, !tbaa !10
  %44 = getelementptr inbounds nuw i32, ptr %43, i32 1
  store ptr %44, ptr %7, align 8, !tbaa !10
  store i32 %42, ptr %43, align 4, !tbaa !13
  %45 = load ptr, ptr %6, align 8, !tbaa !10
  %46 = getelementptr inbounds i32, ptr %45, i64 3
  %47 = load i32, ptr %46, align 4, !tbaa !13
  %48 = call i32 @inverse(i32 noundef %47)
  %49 = load ptr, ptr %7, align 8, !tbaa !10
  %50 = getelementptr inbounds nuw i32, ptr %49, i32 1
  store ptr %50, ptr %7, align 8, !tbaa !10
  store i32 %48, ptr %49, align 4, !tbaa !13
  %51 = load i32, ptr %5, align 4, !tbaa !13
  %52 = icmp eq i32 %51, 8
  br i1 %52, label %53, label %54

53:                                               ; preds = %20
  br label %70

54:                                               ; preds = %20
  %55 = load ptr, ptr %6, align 8, !tbaa !10
  %56 = getelementptr inbounds i32, ptr %55, i64 -6
  store ptr %56, ptr %6, align 8, !tbaa !10
  %57 = load ptr, ptr %6, align 8, !tbaa !10
  %58 = getelementptr inbounds i32, ptr %57, i64 4
  %59 = load i32, ptr %58, align 4, !tbaa !13
  %60 = load ptr, ptr %7, align 8, !tbaa !10
  %61 = getelementptr inbounds nuw i32, ptr %60, i32 1
  store ptr %61, ptr %7, align 8, !tbaa !10
  store i32 %59, ptr %60, align 4, !tbaa !13
  %62 = load ptr, ptr %6, align 8, !tbaa !10
  %63 = getelementptr inbounds i32, ptr %62, i64 5
  %64 = load i32, ptr %63, align 4, !tbaa !13
  %65 = load ptr, ptr %7, align 8, !tbaa !10
  %66 = getelementptr inbounds nuw i32, ptr %65, i32 1
  store ptr %66, ptr %7, align 8, !tbaa !10
  store i32 %64, ptr %65, align 4, !tbaa !13
  br label %67

67:                                               ; preds = %54
  %68 = load i32, ptr %5, align 4, !tbaa !13
  %69 = add nsw i32 %68, 1
  store i32 %69, ptr %5, align 4, !tbaa !13
  br label %17, !llvm.loop !17

70:                                               ; preds = %53, %17
  %71 = load ptr, ptr %4, align 8, !tbaa !8
  %72 = getelementptr inbounds nuw %struct.idea_key_st, ptr %71, i32 0, i32 0
  %73 = getelementptr inbounds [9 x [6 x i32]], ptr %72, i64 0, i64 0
  %74 = getelementptr inbounds [6 x i32], ptr %73, i64 0, i64 0
  store ptr %74, ptr %7, align 8, !tbaa !10
  %75 = load ptr, ptr %7, align 8, !tbaa !10
  %76 = getelementptr inbounds i32, ptr %75, i64 1
  %77 = load i32, ptr %76, align 4, !tbaa !13
  store i32 %77, ptr %8, align 4, !tbaa !13
  %78 = load ptr, ptr %7, align 8, !tbaa !10
  %79 = getelementptr inbounds i32, ptr %78, i64 2
  %80 = load i32, ptr %79, align 4, !tbaa !13
  %81 = load ptr, ptr %7, align 8, !tbaa !10
  %82 = getelementptr inbounds i32, ptr %81, i64 1
  store i32 %80, ptr %82, align 4, !tbaa !13
  %83 = load i32, ptr %8, align 4, !tbaa !13
  %84 = load ptr, ptr %7, align 8, !tbaa !10
  %85 = getelementptr inbounds i32, ptr %84, i64 2
  store i32 %83, ptr %85, align 4, !tbaa !13
  %86 = load ptr, ptr %7, align 8, !tbaa !10
  %87 = getelementptr inbounds i32, ptr %86, i64 49
  %88 = load i32, ptr %87, align 4, !tbaa !13
  store i32 %88, ptr %8, align 4, !tbaa !13
  %89 = load ptr, ptr %7, align 8, !tbaa !10
  %90 = getelementptr inbounds i32, ptr %89, i64 50
  %91 = load i32, ptr %90, align 4, !tbaa !13
  %92 = load ptr, ptr %7, align 8, !tbaa !10
  %93 = getelementptr inbounds i32, ptr %92, i64 49
  store i32 %91, ptr %93, align 4, !tbaa !13
  %94 = load i32, ptr %8, align 4, !tbaa !13
  %95 = load ptr, ptr %7, align 8, !tbaa !10
  %96 = getelementptr inbounds i32, ptr %95, i64 50
  store i32 %94, ptr %96, align 4, !tbaa !13
  call void @llvm.lifetime.end.p0(i64 4, ptr %8) #2
  call void @llvm.lifetime.end.p0(i64 8, ptr %7) #2
  call void @llvm.lifetime.end.p0(i64 8, ptr %6) #2
  call void @llvm.lifetime.end.p0(i64 4, ptr %5) #2
  ret void
}