; Function Attrs: nofree norecurse nosync nounwind memory(argmem: readwrite) uwtable
define void @IDEA_set_decrypt_key(ptr noundef readonly captures(none) %0, ptr noundef captures(none) %1) local_unnamed_addr #0 {
  %3 = getelementptr inbounds nuw i8, ptr %0, i64 192
  br label %4

4:                                                ; preds = %50, %2
  %.045 = phi i32 [ 0, %2 ], [ %59, %50 ]
  %.02844 = phi ptr [ %1, %2 ], [ %58, %50 ]
  %.02943 = phi ptr [ %3, %2 ], [ %52, %50 ]
  %5 = load i32, ptr %.02943, align 4, !tbaa !6
  %6 = icmp eq i32 %5, 0
  br i1 %6, label %inverse.exit, label %7

7:                                                ; preds = %4
  %8 = urem i32 65537, %5
  %9 = icmp eq i32 %8, 0
  br i1 %9, label %inverse.exit, label %.lr.ph.i.preheader

.lr.ph.i.preheader:                               ; preds = %7
  %.zext.i = zext nneg i32 %8 to i64
  %10 = zext i32 %5 to i64
  br label %.lr.ph.i

.thread.i:                                        ; preds = %.lr.ph.i
  %11 = icmp slt i64 %18, 0
  %12 = add nsw i64 %18, 65537
  %spec.select.i = select i1 %11, i64 %12, i64 %18
  %13 = trunc i64 %spec.select.i to i32
  br label %inverse.exit

.lr.ph.i:                                         ; preds = %.lr.ph.i.preheader, %.lr.ph.i
  %14 = phi i64 [ %19, %.lr.ph.i ], [ %.zext.i, %.lr.ph.i.preheader ]
  %.034.i = phi i64 [ %.02331.i, %.lr.ph.i ], [ 65537, %.lr.ph.i.preheader ]
  %.12033.i = phi i64 [ %18, %.lr.ph.i ], [ 1, %.lr.ph.i.preheader ]
  %.02132.i = phi i64 [ %.12033.i, %.lr.ph.i ], [ 0, %.lr.ph.i.preheader ]
  %.02331.i = phi i64 [ %14, %.lr.ph.i ], [ %10, %.lr.ph.i.preheader ]
  %15 = sub nsw i64 %.034.i, %14
  %16 = sdiv i64 %15, %.02331.i
  %17 = mul nsw i64 %16, %.12033.i
  %.fr37.i = freeze i64 %17
  %18 = sub i64 %.02132.i, %.fr37.i
  %19 = urem i64 %.02331.i, %14
  %20 = icmp eq i64 %19, 0
  br i1 %20, label %.thread.i, label %.lr.ph.i, !llvm.loop !10

inverse.exit:                                     ; preds = %7, %.thread.i, %4
  %.019.i = phi i32 [ 0, %4 ], [ 1, %7 ], [ %13, %.thread.i ]
  %21 = getelementptr inbounds nuw i8, ptr %.02844, i64 4
  store i32 %.019.i, ptr %.02844, align 4, !tbaa !6
  %22 = getelementptr inbounds nuw i8, ptr %.02943, i64 8
  %23 = load i32, ptr %22, align 4, !tbaa !6
  %24 = sub i32 0, %23
  %25 = and i32 %24, 65535
  %26 = getelementptr inbounds nuw i8, ptr %.02844, i64 8
  store i32 %25, ptr %21, align 4, !tbaa !6
  %27 = getelementptr inbounds nuw i8, ptr %.02943, i64 4
  %28 = load i32, ptr %27, align 4, !tbaa !6
  %29 = sub i32 0, %28
  %30 = and i32 %29, 65535
  %31 = getelementptr inbounds nuw i8, ptr %.02844, i64 12
  store i32 %30, ptr %26, align 4, !tbaa !6
  %32 = getelementptr inbounds nuw i8, ptr %.02943, i64 12
  %33 = load i32, ptr %32, align 4, !tbaa !6
  %34 = icmp eq i32 %33, 0
  br i1 %34, label %inverse.exit41, label %35

35:                                               ; preds = %inverse.exit
  %36 = urem i32 65537, %33
  %37 = icmp eq i32 %36, 0
  br i1 %37, label %inverse.exit41, label %.lr.ph.i31.preheader

.lr.ph.i31.preheader:                             ; preds = %35
  %.zext.i30 = zext nneg i32 %36 to i64
  %38 = zext i32 %33 to i64
  br label %.lr.ph.i31

.thread.i37:                                      ; preds = %.lr.ph.i31
  %39 = icmp slt i64 %46, 0
  %40 = add nsw i64 %46, 65537
  %spec.select.i38 = select i1 %39, i64 %40, i64 %46
  %41 = trunc i64 %spec.select.i38 to i32
  br label %inverse.exit41

.lr.ph.i31:                                       ; preds = %.lr.ph.i31.preheader, %.lr.ph.i31
  %42 = phi i64 [ %47, %.lr.ph.i31 ], [ %.zext.i30, %.lr.ph.i31.preheader ]
  %.034.i32 = phi i64 [ %.02331.i35, %.lr.ph.i31 ], [ 65537, %.lr.ph.i31.preheader ]
  %.12033.i33 = phi i64 [ %46, %.lr.ph.i31 ], [ 1, %.lr.ph.i31.preheader ]
  %.02132.i34 = phi i64 [ %.12033.i33, %.lr.ph.i31 ], [ 0, %.lr.ph.i31.preheader ]
  %.02331.i35 = phi i64 [ %42, %.lr.ph.i31 ], [ %38, %.lr.ph.i31.preheader ]
  %43 = sub nsw i64 %.034.i32, %42
  %44 = sdiv i64 %43, %.02331.i35
  %45 = mul nsw i64 %44, %.12033.i33
  %.fr37.i36 = freeze i64 %45
  %46 = sub i64 %.02132.i34, %.fr37.i36
  %47 = urem i64 %.02331.i35, %42
  %48 = icmp eq i64 %47, 0
  br i1 %48, label %.thread.i37, label %.lr.ph.i31, !llvm.loop !10

inverse.exit41:                                   ; preds = %35, %.thread.i37, %inverse.exit
  %.019.i40 = phi i32 [ 0, %inverse.exit ], [ 1, %35 ], [ %41, %.thread.i37 ]
  store i32 %.019.i40, ptr %31, align 4, !tbaa !6
  %49 = icmp eq i32 %.045, 8
  br i1 %49, label %split, label %50

50:                                               ; preds = %inverse.exit41
  %51 = getelementptr inbounds nuw i8, ptr %.02844, i64 16
  %52 = getelementptr inbounds i8, ptr %.02943, i64 -24
  %53 = getelementptr inbounds i8, ptr %.02943, i64 -8
  %54 = load i32, ptr %53, align 4, !tbaa !6
  %55 = getelementptr inbounds nuw i8, ptr %.02844, i64 20
  store i32 %54, ptr %51, align 4, !tbaa !6
  %56 = getelementptr inbounds i8, ptr %.02943, i64 -4
  %57 = load i32, ptr %56, align 4, !tbaa !6
  %58 = getelementptr inbounds nuw i8, ptr %.02844, i64 24
  store i32 %57, ptr %55, align 4, !tbaa !6
  %59 = add nuw nsw i32 %.045, 1
  br label %4

split:                                            ; preds = %inverse.exit41
  %60 = getelementptr inbounds nuw i8, ptr %1, i64 4
  %61 = load i32, ptr %60, align 4, !tbaa !6
  %62 = getelementptr inbounds nuw i8, ptr %1, i64 8
  %63 = load i32, ptr %62, align 4, !tbaa !6
  store i32 %63, ptr %60, align 4, !tbaa !6
  store i32 %61, ptr %62, align 4, !tbaa !6
  %64 = getelementptr inbounds nuw i8, ptr %1, i64 196
  %65 = load i32, ptr %64, align 4, !tbaa !6
  %66 = getelementptr inbounds nuw i8, ptr %1, i64 200
  %67 = load i32, ptr %66, align 4, !tbaa !6
  store i32 %67, ptr %64, align 4, !tbaa !6
  store i32 %65, ptr %66, align 4, !tbaa !6
  ret void
}